(lp0
(lp1
(lp2
VShe was born in the Soviet Union (now ukraine) i was born in America. Met in Germany. Glad the cold war is over.
p3
aI3
aF1364609682.0
aI1364609928
aVhttp://www.reddit.com/r/PEOPLE/comments/1ba4od/she_was_born_in_the_soviet_union_now_ukraine_i/
p4
aa(lp5
g3
aI3
aF1364609682.0
aI1364609988
ag4
aa(lp6
g3
aI3
aF1364609682.0
aI1364610048
ag4
aa(lp7
g3
aI3
aF1364609682.0
aI1364610108
ag4
aa(lp8
g3
aI3
aF1364609682.0
aI1364610168
ag4
aa(lp9
g3
aI3
aF1364609682.0
aI1364610228
ag4
aa(lp10
g3
aI3
aF1364609682.0
aI1364610288
ag4
aa(lp11
g3
aI3
aF1364609682.0
aI1364610348
ag4
aa(lp12
g3
aI3
aF1364609682.0
aI1364610408
ag4
aa(lp13
g3
aI3
aF1364609682.0
aI1364610468
ag4
aa(lp14
g3
aI3
aF1364609682.0
aI1364610528
ag4
aa(lp15
g3
aI3
aF1364609682.0
aI1364610588
ag4
aa(lp16
g3
aI3
aF1364609682.0
aI1364610648
ag4
aa(lp17
g3
aI3
aF1364609682.0
aI1364610708
ag4
aa(lp18
g3
aI3
aF1364609682.0
aI1364610768
ag4
aaa(lp19
(lp20
V[GIFTED] labellerebelle - thank you for your help!
p21
aI8
aF1364609651.0
aI1364609928
aVhttp://www.reddit.com/r/Random_Acts_Of_Amazon/comments/1ba4n9/gifted_labellerebelle_thank_you_for_your_help/
p22
aa(lp23
g21
aI8
aF1364609651.0
aI1364609988
ag22
aa(lp24
g21
aI8
aF1364609651.0
aI1364610048
ag22
aa(lp25
g21
aI8
aF1364609651.0
aI1364610108
ag22
aa(lp26
g21
aI8
aF1364609651.0
aI1364610168
ag22
aa(lp27
g21
aI8
aF1364609651.0
aI1364610228
ag22
aa(lp28
g21
aI8
aF1364609651.0
aI1364610288
ag22
aa(lp29
g21
aI8
aF1364609651.0
aI1364610348
ag22
aa(lp30
g21
aI8
aF1364609651.0
aI1364610408
ag22
aa(lp31
g21
aI8
aF1364609651.0
aI1364610468
ag22
aa(lp32
g21
aI8
aF1364609651.0
aI1364610528
ag22
aa(lp33
g21
aI8
aF1364609651.0
aI1364610588
ag22
aa(lp34
g21
aI8
aF1364609651.0
aI1364610648
ag22
aa(lp35
g21
aI8
aF1364609651.0
aI1364610708
ag22
aa(lp36
g21
aI8
aF1364609651.0
aI1364610768
ag22
aaa(lp37
(lp38
VA photographic walking tour guide of St John's
p39
aI2
aF1364609748.0
aI1364609928
aVhttp://www.reddit.com/r/newfoundland/comments/1ba4ql/a_photographic_walking_tour_guide_of_st_johns/
p40
aa(lp41
g39
aI2
aF1364609748.0
aI1364609988
ag40
aa(lp42
g39
aI2
aF1364609748.0
aI1364610048
ag40
aa(lp43
g39
aI2
aF1364609748.0
aI1364610108
ag40
aa(lp44
g39
aI2
aF1364609748.0
aI1364610168
ag40
aa(lp45
g39
aI2
aF1364609748.0
aI1364610228
ag40
aa(lp46
g39
aI2
aF1364609748.0
aI1364610288
ag40
aa(lp47
g39
aI2
aF1364609748.0
aI1364610348
ag40
aa(lp48
g39
aI2
aF1364609748.0
aI1364610408
ag40
aa(lp49
g39
aI2
aF1364609748.0
aI1364610468
ag40
aa(lp50
g39
aI2
aF1364609748.0
aI1364610528
ag40
aa(lp51
g39
aI2
aF1364609748.0
aI1364610588
ag40
aa(lp52
g39
aI2
aF1364609748.0
aI1364610648
ag40
aa(lp53
g39
aI2
aF1364609748.0
aI1364610708
ag40
aa(lp54
g39
aI2
aF1364609748.0
aI1364610768
ag40
aaa(lp55
(lp56
VUS Barb WW most likely, 40M Budget
p57
aI1
aF1364609752.0
aI1364609928
aVhttp://www.reddit.com/r/D3GC/comments/1ba4qq/us_barb_ww_most_likely_40m_budget/
p58
aa(lp59
g57
aI1
aF1364609752.0
aI1364609988
ag58
aa(lp60
g57
aI1
aF1364609752.0
aI1364610048
ag58
aa(lp61
g57
aI1
aF1364609752.0
aI1364610108
ag58
aa(lp62
g57
aI1
aF1364609752.0
aI1364610168
ag58
aa(lp63
g57
aI1
aF1364609752.0
aI1364610228
ag58
aa(lp64
g57
aI1
aF1364609752.0
aI1364610288
ag58
aa(lp65
g57
aI1
aF1364609752.0
aI1364610348
ag58
aa(lp66
g57
aI1
aF1364609752.0
aI1364610408
ag58
aa(lp67
g57
aI1
aF1364609752.0
aI1364610468
ag58
aa(lp68
g57
aI1
aF1364609752.0
aI1364610528
ag58
aa(lp69
g57
aI1
aF1364609752.0
aI1364610588
ag58
aa(lp70
g57
aI1
aF1364609752.0
aI1364610648
ag58
aa(lp71
g57
aI1
aF1364609752.0
aI1364610708
ag58
aa(lp72
g57
aI1
aF1364609752.0
aI1364610768
ag58
aaa(lp73
(lp74
V#### To everyone involved in the Missing Dragon arc (And everyone else :D)
p75
aI2
aF1364609275.0
aI1364609928
aVhttp://www.reddit.com/r/Seireitei/comments/1ba4ae/to_everyone_involved_in_the_missing_dragon_arc/
p76
aa(lp77
g75
aI2
aF1364609275.0
aI1364609988
ag76
aa(lp78
g75
aI2
aF1364609275.0
aI1364610048
ag76
aa(lp79
g75
aI2
aF1364609275.0
aI1364610108
ag76
aa(lp80
g75
aI2
aF1364609275.0
aI1364610168
ag76
aa(lp81
g75
aI2
aF1364609275.0
aI1364610228
ag76
aa(lp82
g75
aI2
aF1364609275.0
aI1364610288
ag76
aa(lp83
g75
aI2
aF1364609275.0
aI1364610348
ag76
aa(lp84
g75
aI2
aF1364609275.0
aI1364610408
ag76
aa(lp85
g75
aI2
aF1364609275.0
aI1364610468
ag76
aa(lp86
g75
aI2
aF1364609275.0
aI1364610528
ag76
aa(lp87
g75
aI2
aF1364609275.0
aI1364610588
ag76
aa(lp88
g75
aI2
aF1364609275.0
aI1364610648
ag76
aa(lp89
g75
aI2
aF1364609275.0
aI1364610708
ag76
aa(lp90
g75
aI2
aF1364609275.0
aI1364610768
ag76
aaa(lp91
(lp92
VWere the Precursors one race, or a group of races? Were Forerunners themselves Precursors? Possible ideas(Halo Silentium spoilers)
p93
aI1
aF1364609739.0
aI1364609928
aVhttp://www.reddit.com/r/HaloStory/comments/1ba4q7/were_the_precursors_one_race_or_a_group_of_races/
p94
aa(lp95
g93
aI1
aF1364609739.0
aI1364609988
ag94
aa(lp96
g93
aI1
aF1364609739.0
aI1364610048
ag94
aa(lp97
g93
aI1
aF1364609739.0
aI1364610108
ag94
aa(lp98
g93
aI1
aF1364609739.0
aI1364610168
ag94
aa(lp99
g93
aI1
aF1364609739.0
aI1364610228
ag94
aa(lp100
g93
aI1
aF1364609739.0
aI1364610288
ag94
aa(lp101
g93
aI1
aF1364609739.0
aI1364610348
ag94
aa(lp102
g93
aI1
aF1364609739.0
aI1364610408
ag94
aa(lp103
g93
aI1
aF1364609739.0
aI1364610468
ag94
aa(lp104
g93
aI1
aF1364609739.0
aI1364610528
ag94
aa(lp105
g93
aI1
aF1364609739.0
aI1364610588
ag94
aa(lp106
g93
aI1
aF1364609739.0
aI1364610648
ag94
aa(lp107
g93
aI1
aF1364609739.0
aI1364610708
ag94
aa(lp108
g93
aI1
aF1364609739.0
aI1364610768
ag94
aaa(lp109
(lp110
VYou feel you are in a region of the world pulled by secular and traditional concepts, with complex situations, political unease, and probably a bit hot, or Mongolia. Also ,if female, you produce salty goodness milk for camel cheese in Sudan. Also, if...no, just female.
p111
aI1
aF1364609562.0
aI1364609928
aVhttp://www.reddit.com/r/SignsYouMayBeACamel/comments/1ba4k4/you_feel_you_are_in_a_region_of_the_world_pulled/
p112
aa(lp113
g111
aI1
aF1364609562.0
aI1364609988
ag112
aa(lp114
g111
aI1
aF1364609562.0
aI1364610048
ag112
aa(lp115
g111
aI1
aF1364609562.0
aI1364610108
ag112
aa(lp116
g111
aI1
aF1364609562.0
aI1364610168
ag112
aa(lp117
g111
aI1
aF1364609562.0
aI1364610228
ag112
aa(lp118
g111
aI1
aF1364609562.0
aI1364610288
ag112
aa(lp119
g111
aI1
aF1364609562.0
aI1364610348
ag112
aa(lp120
g111
aI1
aF1364609562.0
aI1364610408
ag112
aa(lp121
g111
aI1
aF1364609562.0
aI1364610468
ag112
aa(lp122
g111
aI1
aF1364609562.0
aI1364610528
ag112
aa(lp123
g111
aI1
aF1364609562.0
aI1364610588
ag112
aa(lp124
g111
aI1
aF1364609562.0
aI1364610648
ag112
aa(lp125
g111
aI1
aF1364609562.0
aI1364610708
ag112
aa(lp126
g111
aI1
aF1364609562.0
aI1364610768
ag112
aaa(lp127
(lp128
VAwkwardness, thy name is POSSLQ (brief rambling)
p129
aI1
aF1364609751.0
aI1364609928
aVhttp://www.reddit.com/r/MyLittleFriends/comments/1ba4qp/awkwardness_thy_name_is_posslq_brief_rambling/
p130
aa(lp131
g129
aI1
aF1364609751.0
aI1364609988
ag130
aa(lp132
g129
aI1
aF1364609751.0
aI1364610048
ag130
aa(lp133
g129
aI1
aF1364609751.0
aI1364610108
ag130
aa(lp134
g129
aI1
aF1364609751.0
aI1364610168
ag130
aa(lp135
g129
aI1
aF1364609751.0
aI1364610228
ag130
aa(lp136
g129
aI1
aF1364609751.0
aI1364610288
ag130
aa(lp137
g129
aI1
aF1364609751.0
aI1364610348
ag130
aa(lp138
g129
aI1
aF1364609751.0
aI1364610408
ag130
aa(lp139
g129
aI1
aF1364609751.0
aI1364610468
ag130
aa(lp140
g129
aI1
aF1364609751.0
aI1364610528
ag130
aa(lp141
g129
aI1
aF1364609751.0
aI1364610588
ag130
aa(lp142
g129
aI1
aF1364609751.0
aI1364610648
ag130
aa(lp143
g129
aI1
aF1364609751.0
aI1364610708
ag130
aa(lp144
g129
aI1
aF1364609751.0
aI1364610768
ag130
aaa(lp145
(lp146
V[Thanks] to the AMAZING Squeakachoo! Brave colouring book. &lt;3
p147
aI3
aF1364609705.0
aI1364609928
aVhttp://www.reddit.com/r/Random_Acts_Of_Amazon/comments/1ba4p7/thanks_to_the_amazing_squeakachoo_brave_colouring/
p148
aa(lp149
g147
aI3
aF1364609705.0
aI1364609988
ag148
aa(lp150
g147
aI3
aF1364609705.0
aI1364610048
ag148
aa(lp151
g147
aI3
aF1364609705.0
aI1364610108
ag148
aa(lp152
g147
aI3
aF1364609705.0
aI1364610168
ag148
aa(lp153
g147
aI3
aF1364609705.0
aI1364610228
ag148
aa(lp154
g147
aI3
aF1364609705.0
aI1364610288
ag148
aa(lp155
g147
aI3
aF1364609705.0
aI1364610348
ag148
aa(lp156
g147
aI3
aF1364609705.0
aI1364610408
ag148
aa(lp157
g147
aI3
aF1364609705.0
aI1364610468
ag148
aa(lp158
g147
aI3
aF1364609705.0
aI1364610528
ag148
aa(lp159
g147
aI3
aF1364609705.0
aI1364610588
ag148
aa(lp160
g147
aI3
aF1364609705.0
aI1364610648
ag148
aa(lp161
g147
aI3
aF1364609705.0
aI1364610708
ag148
aa(lp162
g147
aI3
aF1364609705.0
aI1364610768
ag148
aaa(lp163
(lp164
VHow I feel after watching KU blow it
p165
aI2
aF1364609758.0
aI1364609928
aVhttp://www.reddit.com/r/jayhawks/comments/1ba4qz/how_i_feel_after_watching_ku_blow_it/
p166
aa(lp167
g165
aI2
aF1364609758.0
aI1364609988
ag166
aa(lp168
g165
aI2
aF1364609758.0
aI1364610048
ag166
aa(lp169
g165
aI2
aF1364609758.0
aI1364610108
ag166
aa(lp170
g165
aI2
aF1364609758.0
aI1364610168
ag166
aa(lp171
g165
aI2
aF1364609758.0
aI1364610228
ag166
aa(lp172
g165
aI2
aF1364609758.0
aI1364610288
ag166
aa(lp173
g165
aI2
aF1364609758.0
aI1364610348
ag166
aa(lp174
g165
aI2
aF1364609758.0
aI1364610408
ag166
aa(lp175
g165
aI2
aF1364609758.0
aI1364610468
ag166
aa(lp176
g165
aI2
aF1364609758.0
aI1364610528
ag166
aa(lp177
g165
aI2
aF1364609758.0
aI1364610588
ag166
aa(lp178
g165
aI2
aF1364609758.0
aI1364610648
ag166
aa(lp179
g165
aI2
aF1364609758.0
aI1364610708
ag166
aa(lp180
g165
aI2
aF1364609758.0
aI1364610768
ag166
aaa(lp181
(lp182
VI've had an erection for more than four hours, what do I do?
p183
aI1
aF1364609744.0
aI1364609928
aVhttp://www.reddit.com/r/shittyaskreddit/comments/1ba4qg/ive_had_an_erection_for_more_than_four_hours_what/
p184
aa(lp185
g183
aI1
aF1364609744.0
aI1364609988
ag184
aa(lp186
g183
aI1
aF1364609744.0
aI1364610048
ag184
aa(lp187
g183
aI1
aF1364609744.0
aI1364610108
ag184
aa(lp188
g183
aI1
aF1364609744.0
aI1364610168
ag184
aa(lp189
g183
aI1
aF1364609744.0
aI1364610228
ag184
aa(lp190
g183
aI1
aF1364609744.0
aI1364610288
ag184
aa(lp191
g183
aI1
aF1364609744.0
aI1364610348
ag184
aa(lp192
g183
aI1
aF1364609744.0
aI1364610408
ag184
aa(lp193
g183
aI1
aF1364609744.0
aI1364610468
ag184
aa(lp194
g183
aI1
aF1364609744.0
aI1364610528
ag184
aa(lp195
g183
aI1
aF1364609744.0
aI1364610588
ag184
aa(lp196
g183
aI1
aF1364609744.0
aI1364610648
ag184
aa(lp197
g183
aI1
aF1364609744.0
aI1364610708
ag184
aa(lp198
g183
aI1
aF1364609744.0
aI1364610768
ag184
aaa(lp199
(lp200
VStolen Phones
p201
aI1
aF1364609713.0
aI1364609928
aVhttp://www.reddit.com/r/shanghai/comments/1ba4pl/stolen_phones/
p202
aa(lp203
g201
aI1
aF1364609713.0
aI1364609988
ag202
aa(lp204
g201
aI1
aF1364609713.0
aI1364610048
ag202
aa(lp205
g201
aI1
aF1364609713.0
aI1364610108
ag202
aa(lp206
g201
aI1
aF1364609713.0
aI1364610168
ag202
aa(lp207
g201
aI1
aF1364609713.0
aI1364610228
ag202
aa(lp208
g201
aI1
aF1364609713.0
aI1364610288
ag202
aa(lp209
g201
aI1
aF1364609713.0
aI1364610348
ag202
aa(lp210
g201
aI1
aF1364609713.0
aI1364610408
ag202
aa(lp211
g201
aI1
aF1364609713.0
aI1364610468
ag202
aa(lp212
g201
aI1
aF1364609713.0
aI1364610528
ag202
aa(lp213
g201
aI1
aF1364609713.0
aI1364610588
ag202
aa(lp214
g201
aI1
aF1364609713.0
aI1364610648
ag202
aa(lp215
g201
aI1
aF1364609713.0
aI1364610708
ag202
aa(lp216
g201
aI1
aF1364609713.0
aI1364610768
ag202
aaa(lp217
(lp218
VHe blew the candles out alone.
p219
aI1
aF1364609676.0
aI1364609928
aVhttp://www.reddit.com/r/sixwordstories/comments/1ba4o7/he_blew_the_candles_out_alone/
p220
aa(lp221
g219
aI1
aF1364609676.0
aI1364609988
ag220
aa(lp222
g219
aI1
aF1364609676.0
aI1364610048
ag220
aa(lp223
g219
aI1
aF1364609676.0
aI1364610108
ag220
aa(lp224
g219
aI1
aF1364609676.0
aI1364610168
ag220
aa(lp225
g219
aI1
aF1364609676.0
aI1364610228
ag220
aa(lp226
g219
aI1
aF1364609676.0
aI1364610288
ag220
aa(lp227
g219
aI1
aF1364609676.0
aI1364610348
ag220
aa(lp228
g219
aI1
aF1364609676.0
aI1364610408
ag220
aa(lp229
g219
aI1
aF1364609676.0
aI1364610468
ag220
aa(lp230
g219
aI1
aF1364609676.0
aI1364610528
ag220
aa(lp231
g219
aI1
aF1364609676.0
aI1364610588
ag220
aa(lp232
g219
aI1
aF1364609676.0
aI1364610648
ag220
aa(lp233
g219
aI1
aF1364609676.0
aI1364610708
ag220
aa(lp234
g219
aI1
aF1364609676.0
aI1364610768
ag220
aaa(lp235
(lp236
VGood evening, welcome to Waitstaff Gold, my name is MrEccENTric and I will be serving you tonight. Can I start you off with a link?
p237
aI1
aF1364609696.0
aI1364609928
aVhttp://www.reddit.com/r/WaitstaffGold/comments/1ba4oy/good_evening_welcome_to_waitstaff_gold_my_name_is/
p238
aa(lp239
g237
aI1
aF1364609696.0
aI1364609988
ag238
aa(lp240
g237
aI1
aF1364609696.0
aI1364610048
ag238
aa(lp241
g237
aI1
aF1364609696.0
aI1364610108
ag238
aa(lp242
g237
aI1
aF1364609696.0
aI1364610168
ag238
aa(lp243
g237
aI1
aF1364609696.0
aI1364610228
ag238
aa(lp244
g237
aI1
aF1364609696.0
aI1364610288
ag238
aa(lp245
g237
aI1
aF1364609696.0
aI1364610348
ag238
aa(lp246
g237
aI1
aF1364609696.0
aI1364610408
ag238
aa(lp247
g237
aI1
aF1364609696.0
aI1364610468
ag238
aa(lp248
g237
aI1
aF1364609696.0
aI1364610528
ag238
aa(lp249
g237
aI1
aF1364609696.0
aI1364610588
ag238
aa(lp250
g237
aI1
aF1364609696.0
aI1364610648
ag238
aa(lp251
g237
aI1
aF1364609696.0
aI1364610708
ag238
aa(lp252
g237
aI1
aF1364609696.0
aI1364610768
ag238
aaa(lp253
(lp254
VWE DID IT!
p255
aI4
aF1364609486.0
aI1364609928
aVhttp://www.reddit.com/r/MichiganWolverines/comments/1ba4hp/we_did_it/
p256
aa(lp257
g255
aI4
aF1364609486.0
aI1364609988
ag256
aa(lp258
g255
aI4
aF1364609486.0
aI1364610048
ag256
aa(lp259
g255
aI4
aF1364609486.0
aI1364610108
ag256
aa(lp260
g255
aI4
aF1364609486.0
aI1364610168
ag256
aa(lp261
g255
aI4
aF1364609486.0
aI1364610228
ag256
aa(lp262
g255
aI4
aF1364609486.0
aI1364610288
ag256
aa(lp263
g255
aI4
aF1364609486.0
aI1364610348
ag256
aa(lp264
g255
aI4
aF1364609486.0
aI1364610408
ag256
aa(lp265
g255
aI4
aF1364609486.0
aI1364610468
ag256
aa(lp266
g255
aI4
aF1364609486.0
aI1364610528
ag256
aa(lp267
g255
aI4
aF1364609486.0
aI1364610588
ag256
aa(lp268
g255
aI4
aF1364609486.0
aI1364610648
ag256
aa(lp269
g255
aI4
aF1364609486.0
aI1364610708
ag256
aa(lp270
g255
aI4
aF1364609486.0
aI1364610768
ag256
aaa(lp271
(lp272
VSaw this on my facebook feed and didn't think anything of it until i saw who wrote the forward.
p273
aI2
aF1364609669.0
aI1364609928
aVhttp://www.reddit.com/r/onetruegod/comments/1ba4nz/saw_this_on_my_facebook_feed_and_didnt_think/
p274
aa(lp275
g273
aI2
aF1364609669.0
aI1364609988
ag274
aa(lp276
g273
aI2
aF1364609669.0
aI1364610048
ag274
aa(lp277
g273
aI2
aF1364609669.0
aI1364610108
ag274
aa(lp278
g273
aI2
aF1364609669.0
aI1364610168
ag274
aa(lp279
g273
aI2
aF1364609669.0
aI1364610228
ag274
aa(lp280
g273
aI2
aF1364609669.0
aI1364610288
ag274
aa(lp281
g273
aI2
aF1364609669.0
aI1364610348
ag274
aa(lp282
g273
aI2
aF1364609669.0
aI1364610408
ag274
aa(lp283
g273
aI2
aF1364609669.0
aI1364610468
ag274
aa(lp284
g273
aI2
aF1364609669.0
aI1364610528
ag274
aa(lp285
g273
aI2
aF1364609669.0
aI1364610588
ag274
aa(lp286
g273
aI2
aF1364609669.0
aI1364610648
ag274
aa(lp287
g273
aI2
aF1364609669.0
aI1364610708
ag274
aa(lp288
g273
aI2
aF1364609669.0
aI1364610768
ag274
aaa(lp289
(lp290
VImportant Bond Vote to be Held on May 11th, 2013
p291
aI1
aF1364609622.0
aI1364609928
aVhttp://www.reddit.com/r/crosby/comments/1ba4md/important_bond_vote_to_be_held_on_may_11th_2013/
p292
aa(lp293
g291
aI1
aF1364609622.0
aI1364609988
ag292
aa(lp294
g291
aI1
aF1364609622.0
aI1364610048
ag292
aa(lp295
g291
aI1
aF1364609622.0
aI1364610108
ag292
aa(lp296
g291
aI1
aF1364609622.0
aI1364610168
ag292
aa(lp297
g291
aI1
aF1364609622.0
aI1364610228
ag292
aa(lp298
g291
aI1
aF1364609622.0
aI1364610288
ag292
aa(lp299
g291
aI1
aF1364609622.0
aI1364610348
ag292
aa(lp300
g291
aI1
aF1364609622.0
aI1364610408
ag292
aa(lp301
g291
aI1
aF1364609622.0
aI1364610468
ag292
aa(lp302
g291
aI1
aF1364609622.0
aI1364610528
ag292
aa(lp303
g291
aI1
aF1364609622.0
aI1364610588
ag292
aa(lp304
g291
aI1
aF1364609622.0
aI1364610648
ag292
aa(lp305
g291
aI1
aF1364609622.0
aI1364610708
ag292
aa(lp306
g291
aI1
aF1364609622.0
aI1364610768
ag292
aaa(lp307
(lp308
V/r/politics [spam filtered] Dear Atlanta, thank you for finding this out.
p309
aI1
aF1364609619.0
aI1364609928
aVhttp://www.reddit.com/r/ModerationLog/comments/1ba4mb/rpolitics_spam_filtered_dear_atlanta_thank_you/
p310
aa(lp311
g309
aI1
aF1364609619.0
aI1364609988
ag310
aa(lp312
g309
aI1
aF1364609619.0
aI1364610048
ag310
aa(lp313
g309
aI1
aF1364609619.0
aI1364610108
ag310
aa(lp314
g309
aI1
aF1364609619.0
aI1364610168
ag310
aa(lp315
g309
aI1
aF1364609619.0
aI1364610228
ag310
aa(lp316
g309
aI1
aF1364609619.0
aI1364610288
ag310
aa(lp317
g309
aI1
aF1364609619.0
aI1364610348
ag310
aa(lp318
g309
aI1
aF1364609619.0
aI1364610408
ag310
aa(lp319
g309
aI1
aF1364609619.0
aI1364610468
ag310
aa(lp320
g309
aI1
aF1364609619.0
aI1364610528
ag310
aa(lp321
g309
aI1
aF1364609619.0
aI1364610588
ag310
aa(lp322
g309
aI1
aF1364609619.0
aI1364610648
ag310
aa(lp323
g309
aI1
aF1364609619.0
aI1364610708
ag310
aa(lp324
g309
aI1
aF1364609619.0
aI1364610768
ag310
aaa(lp325
(lp326
VI've done this many times to great effect
p327
aI1
aF1364609512.0
aI1364609928
aVhttp://www.reddit.com/r/AdviceAnimals/comments/1ba4ii/ive_done_this_many_times_to_great_effect/
p328
aa(lp329
g327
aI1
aF1364609512.0
aI1364609988
ag328
aa(lp330
g327
aI1
aF1364609512.0
aI1364610048
ag328
aa(lp331
g327
aI1
aF1364609512.0
aI1364610108
ag328
aa(lp332
g327
aI1
aF1364609512.0
aI1364610168
ag328
aa(lp333
g327
aI1
aF1364609512.0
aI1364610228
ag328
aa(lp334
g327
aI1
aF1364609512.0
aI1364610288
ag328
aa(lp335
g327
aI1
aF1364609512.0
aI1364610348
ag328
aa(lp336
g327
aI1
aF1364609512.0
aI1364610408
ag328
aa(lp337
g327
aI1
aF1364609512.0
aI1364610468
ag328
aa(lp338
g327
aI1
aF1364609512.0
aI1364610528
ag328
aa(lp339
g327
aI1
aF1364609512.0
aI1364610588
ag328
aa(lp340
g327
aI1
aF1364609512.0
aI1364610648
ag328
aa(lp341
g327
aI1
aF1364609512.0
aI1364610708
ag328
aa(lp342
g327
aI1
aF1364609512.0
aI1364610768
ag328
aaa(lp343
(lp344
V[Gifted] joni1! YOU ARE AMAZING. Now that you have 3DS XL, will you play pokemon with me? &lt;3
p345
aI21
aF1364609355.0
aI1364609928
aVhttp://www.reddit.com/r/Random_Acts_Of_Amazon/comments/1ba4dd/gifted_joni1_you_are_amazing_now_that_you_have/
p346
aa(lp347
g345
aI21
aF1364609355.0
aI1364609988
ag346
aa(lp348
g345
aI21
aF1364609355.0
aI1364610048
ag346
aa(lp349
g345
aI21
aF1364609355.0
aI1364610108
ag346
aa(lp350
g345
aI21
aF1364609355.0
aI1364610168
ag346
aa(lp351
g345
aI21
aF1364609355.0
aI1364610228
ag346
aa(lp352
g345
aI21
aF1364609355.0
aI1364610288
ag346
aa(lp353
g345
aI21
aF1364609355.0
aI1364610348
ag346
aa(lp354
g345
aI21
aF1364609355.0
aI1364610408
ag346
aa(lp355
g345
aI21
aF1364609355.0
aI1364610468
ag346
aa(lp356
g345
aI21
aF1364609355.0
aI1364610528
ag346
aa(lp357
g345
aI21
aF1364609355.0
aI1364610588
ag346
aa(lp358
g345
aI21
aF1364609355.0
aI1364610648
ag346
aa(lp359
g345
aI21
aF1364609355.0
aI1364610708
ag346
aa(lp360
g345
aI21
aF1364609355.0
aI1364610768
ag346
aaa(lp361
(lp362
V[Gifted] to xCurlyQ for having excellent taste in music!
p363
aI13
aF1364609325.0
aI1364609928
aVhttp://www.reddit.com/r/Random_Acts_Of_Amazon/comments/1ba4ch/gifted_to_xcurlyq_for_having_excellent_taste_in/
p364
aa(lp365
g363
aI13
aF1364609325.0
aI1364609988
ag364
aa(lp366
g363
aI13
aF1364609325.0
aI1364610048
ag364
aa(lp367
g363
aI13
aF1364609325.0
aI1364610108
ag364
aa(lp368
g363
aI13
aF1364609325.0
aI1364610168
ag364
aa(lp369
g363
aI13
aF1364609325.0
aI1364610228
ag364
aa(lp370
g363
aI13
aF1364609325.0
aI1364610288
ag364
aa(lp371
g363
aI13
aF1364609325.0
aI1364610348
ag364
aa(lp372
g363
aI13
aF1364609325.0
aI1364610408
ag364
aa(lp373
g363
aI13
aF1364609325.0
aI1364610468
ag364
aa(lp374
g363
aI13
aF1364609325.0
aI1364610528
ag364
aa(lp375
g363
aI13
aF1364609325.0
aI1364610588
ag364
aa(lp376
g363
aI13
aF1364609325.0
aI1364610648
ag364
aa(lp377
g363
aI13
aF1364609325.0
aI1364610708
ag364
aa(lp378
g363
aI13
aF1364609325.0
aI1364610768
ag364
aaa(lp379
(lp380
VArmy Vet from Phoenix Charged for Fighting with US-Backed Rebels in Syria
p381
aI2
aF1364609560.0
aI1364609928
aVhttp://www.reddit.com/r/InCaseYouMissedIt/comments/1ba4jy/army_vet_from_phoenix_charged_for_fighting_with/
p382
aa(lp383
g381
aI2
aF1364609560.0
aI1364609988
ag382
aa(lp384
g381
aI2
aF1364609560.0
aI1364610048
ag382
aa(lp385
g381
aI2
aF1364609560.0
aI1364610108
ag382
aa(lp386
g381
aI2
aF1364609560.0
aI1364610168
ag382
aa(lp387
g381
aI2
aF1364609560.0
aI1364610228
ag382
aa(lp388
g381
aI2
aF1364609560.0
aI1364610288
ag382
aa(lp389
g381
aI2
aF1364609560.0
aI1364610348
ag382
aa(lp390
g381
aI2
aF1364609560.0
aI1364610408
ag382
aa(lp391
g381
aI2
aF1364609560.0
aI1364610468
ag382
aa(lp392
g381
aI2
aF1364609560.0
aI1364610528
ag382
aa(lp393
g381
aI2
aF1364609560.0
aI1364610588
ag382
aa(lp394
g381
aI2
aF1364609560.0
aI1364610648
ag382
aa(lp395
g381
aI2
aF1364609560.0
aI1364610708
ag382
aa(lp396
g381
aI2
aF1364609560.0
aI1364610768
ag382
aaa(lp397
(lp398
VPassword denied: when will Apple get serious about security?
p399
aI1
aF1364609551.0
aI1364609928
aVhttp://www.reddit.com/r/dyscultured/comments/1ba4jr/password_denied_when_will_apple_get_serious_about/
p400
aa(lp401
g399
aI1
aF1364609551.0
aI1364609988
ag400
aa(lp402
g399
aI1
aF1364609551.0
aI1364610048
ag400
aa(lp403
g399
aI1
aF1364609551.0
aI1364610108
ag400
aa(lp404
g399
aI1
aF1364609551.0
aI1364610168
ag400
aa(lp405
g399
aI1
aF1364609551.0
aI1364610228
ag400
aa(lp406
g399
aI1
aF1364609551.0
aI1364610288
ag400
aa(lp407
g399
aI1
aF1364609551.0
aI1364610348
ag400
aa(lp408
g399
aI1
aF1364609551.0
aI1364610408
ag400
aa(lp409
g399
aI1
aF1364609551.0
aI1364610468
ag400
aa(lp410
g399
aI1
aF1364609551.0
aI1364610528
ag400
aa(lp411
g399
aI1
aF1364609551.0
aI1364610588
ag400
aa(lp412
g399
aI1
aF1364609551.0
aI1364610648
ag400
aa(lp413
g399
aI1
aF1364609551.0
aI1364610708
ag400
aa(lp414
g399
aI1
aF1364609551.0
aI1364610768
ag400
aaa(lp415
(lp416
VBuying 150 uncut/cut Emeralds
p417
aI1
aF1364609683.0
aI1364609928
aVhttp://www.reddit.com/r/2007scapeMarket/comments/1ba4of/buying_150_uncutcut_emeralds/
p418
aa(lp419
g417
aI1
aF1364609683.0
aI1364609988
ag418
aa(lp420
g417
aI1
aF1364609683.0
aI1364610048
ag418
aa(lp421
g417
aI1
aF1364609683.0
aI1364610108
ag418
aa(lp422
g417
aI1
aF1364609683.0
aI1364610168
ag418
aa(lp423
g417
aI1
aF1364609683.0
aI1364610228
ag418
aa(lp424
g417
aI1
aF1364609683.0
aI1364610288
ag418
aa(lp425
g417
aI1
aF1364609683.0
aI1364610348
ag418
aa(lp426
g417
aI1
aF1364609683.0
aI1364610408
ag418
aa(lp427
g417
aI1
aF1364609683.0
aI1364610468
ag418
aa(lp428
g417
aI1
aF1364609683.0
aI1364610528
ag418
aa(lp429
g417
aI1
aF1364609683.0
aI1364610588
ag418
aa(lp430
g417
aI1
aF1364609683.0
aI1364610648
ag418
aa(lp431
g417
aI1
aF1364609683.0
aI1364610708
ag418
aa(lp432
g417
aI1
aF1364609683.0
aI1364610768
ag418
aaa(lp433
(lp434
VLet me... go to my fridge real quick
p435
aI1
aF1364609680.0
aI1364609928
aVhttp://www.reddit.com/r/awesome/comments/1ba4oa/let_me_go_to_my_fridge_real_quick/
p436
aa(lp437
g435
aI1
aF1364609680.0
aI1364609988
ag436
aa(lp438
g435
aI1
aF1364609680.0
aI1364610048
ag436
aa(lp439
g435
aI1
aF1364609680.0
aI1364610108
ag436
aa(lp440
g435
aI1
aF1364609680.0
aI1364610168
ag436
aa(lp441
g435
aI1
aF1364609680.0
aI1364610228
ag436
aa(lp442
g435
aI1
aF1364609680.0
aI1364610288
ag436
aa(lp443
g435
aI1
aF1364609680.0
aI1364610348
ag436
aa(lp444
g435
aI1
aF1364609680.0
aI1364610408
ag436
aa(lp445
g435
aI1
aF1364609680.0
aI1364610468
ag436
aa(lp446
g435
aI1
aF1364609680.0
aI1364610528
ag436
aa(lp447
g435
aI1
aF1364609680.0
aI1364610588
ag436
aa(lp448
g435
aI1
aF1364609680.0
aI1364610648
ag436
aa(lp449
g435
aI1
aF1364609680.0
aI1364610708
ag436
aa(lp450
g435
aI1
aF1364609680.0
aI1364610768
ag436
aaa.